target datalayout = "e-m:e-p270:32:32-p271:32:32-p272:64:64-i64:64-i128:128-f80:128-n8:16:32:64-S128"
target triple = "x86_64-pc-linux-gnu"

%struct.hs_scratch = type { i32, i8, i32, i32, i32, i32, i32, %struct.RoseContext, ptr, ptr, ptr, ptr, ptr, ptr, ptr, i64, %struct.catchup_pq, %struct.core_info, %struct.match_deduper, i32, i32, ptr, ptr, ptr, ptr, ptr, i64, i32, i32, i32, i32, i32, ptr, ptr, i8 }
%struct.RoseContext = type { i8, i64, i64, i64, i64, i64, i64, i64, i64, i64, i32, i32, ptr, i64, ptr, i64 }
%struct.catchup_pq = type { ptr, i32 }
%struct.core_info = type { ptr, ptr, ptr, ptr, ptr, ptr, ptr, ptr, i64, ptr, i64, i64, i8 }
%struct.match_deduper = type { [2 x ptr], [2 x ptr], [2 x ptr], i32, i32, i64, i8 }
%struct.RoseEngine = type { i8, i8, i8, i8, i8, i8, i8, i8, i8, i32, i32, i32, i32, i32, i32, i32, i32, i32, i32, i32, i32, i32, i32, i32, i32, i32, i32, i32, i32, i32, i32, i32, i32, i32, i32, i32, i32, i32, i32, i32, i32, i32, i32, i32, i32, i32, i32, i32, i32, i32, i32, i32, i32, i32, i32, i32, i32, i32, i32, i32, i32, i32, i32, i32, i32, i32, i64, i64, i32, i32, i32, i32, i32, i32, i32, %struct.RoseStateOffsets, %struct.RoseBoundaryReports, i32, i32, i32, i32, i32, i32, i32, i32, i32, i32, i32, i32, %struct.scatter_full_plan }
%struct.RoseStateOffsets = type { i32, i32, i32, i32, i32, i32, i32, i32, i32, i32, i32, i32, i32, i32, i32, i32, i32, i32, i32, i32, i32, i32, i32 }
%struct.RoseBoundaryReports = type { i32, i32, i32 }
%struct.scatter_full_plan = type { i32, i32, i32, i32, i32, i32, i32, i32 }

; Function Attrs: alwaysinline nounwind uwtable
define internal signext i8 @can_stop_matching(ptr noundef %0) #3 {
  %2 = alloca ptr, align 8
  store ptr %0, ptr %2, align 8
  %3 = load ptr, ptr %2, align 8
  %4 = getelementptr inbounds nuw %struct.hs_scratch, ptr %3, i32 0, i32 17
  %5 = getelementptr inbounds nuw %struct.core_info, ptr %4, i32 0, i32 12
  %6 = load i8, ptr %5, align 8
  %7 = zext i8 %6 to i32
  %8 = and i32 %7, 11
  %9 = trunc i32 %8 to i8
  ret i8 %9
}

; Function Attrs: nounwind uwtable
define hidden i32 @roseReportAdaptor(i64 noundef %0, i64 noundef %1, i32 noundef %2, ptr noundef %3) #0 {
  %5 = alloca i32, align 4
  %6 = alloca i64, align 8
  %7 = alloca i64, align 8
  %8 = alloca i32, align 4
  %9 = alloca ptr, align 8
  %10 = alloca ptr, align 8
  %11 = alloca ptr, align 8
  %12 = alloca i32, align 4
  %13 = alloca i8, align 1
  %14 = alloca i64, align 8
  %15 = alloca i32, align 4
  store i64 %0, ptr %6, align 8
  store i64 %1, ptr %7, align 8
  store i32 %2, ptr %8, align 4
  store ptr %3, ptr %9, align 8
  call void @llvm.lifetime.start.p0(i64 8, ptr %10) #8
  %16 = load ptr, ptr %9, align 8
  store ptr %16, ptr %10, align 8
  br label %17

17:                                               ; preds = %4
  br label %18

18:                                               ; preds = %17
  br label %19

19:                                               ; preds = %18
  call void @llvm.lifetime.start.p0(i64 8, ptr %11) #8
  %20 = load ptr, ptr %10, align 8
  %21 = getelementptr inbounds nuw %struct.hs_scratch, ptr %20, i32 0, i32 17
  %22 = getelementptr inbounds nuw %struct.core_info, ptr %21, i32 0, i32 2
  %23 = load ptr, ptr %22, align 8
  store ptr %23, ptr %11, align 8
  call void @llvm.lifetime.start.p0(i64 4, ptr %12) #8
  %24 = load i32, ptr %8, align 4
  store i32 %24, ptr %12, align 4
  call void @llvm.lifetime.start.p0(i64 1, ptr %13) #8
  store i8 8, ptr %13, align 1
  call void @llvm.lifetime.start.p0(i64 8, ptr %14) #8
  %25 = load ptr, ptr %11, align 8
  %26 = getelementptr inbounds nuw %struct.RoseEngine, ptr %25, i32 0, i32 0
  %27 = load i8, ptr %26, align 8
  %28 = icmp ne i8 %27, 0
  br i1 %28, label %29, label %36

29:                                               ; preds = %19
  %30 = load ptr, ptr %11, align 8
  %31 = load ptr, ptr %10, align 8
  %32 = load i32, ptr %12, align 4
  %33 = load i64, ptr %6, align 8
  %34 = load i64, ptr %7, align 8
  %35 = call i64 @roseRunProgram_l(ptr noundef %30, ptr noundef %31, i32 noundef %32, i64 noundef %33, i64 noundef %34, i8 noundef zeroext 8)
  store i64 %35, ptr %14, align 8
  br label %43

36:                                               ; preds = %19
  %37 = load ptr, ptr %11, align 8
  %38 = load ptr, ptr %10, align 8
  %39 = load i32, ptr %12, align 4
  %40 = load i64, ptr %6, align 8
  %41 = load i64, ptr %7, align 8
  %42 = call i64 @roseRunProgram(ptr noundef %37, ptr noundef %38, i32 noundef %39, i64 noundef %40, i64 noundef %41, i8 noundef zeroext 8)
  store i64 %42, ptr %14, align 8
  br label %43

43:                                               ; preds = %36, %29
  %44 = load i64, ptr %14, align 8
  %45 = icmp eq i64 %44, 0
  br i1 %45, label %46, label %47

46:                                               ; preds = %43
  store i32 0, ptr %5, align 4
  store i32 1, ptr %15, align 4
  br label %53

47:                                               ; preds = %43
  %48 = load ptr, ptr %10, align 8
  %49 = call signext i8 @can_stop_matching(ptr noundef %48)
  %50 = sext i8 %49 to i32
  %51 = icmp ne i32 %50, 0
  %52 = select i1 %51, i32 0, i32 1
  store i32 %52, ptr %5, align 4
  store i32 1, ptr %15, align 4
  br label %53

53:                                               ; preds = %47, %46
  call void @llvm.lifetime.end.p0(i64 8, ptr %14) #8
  call void @llvm.lifetime.end.p0(i64 1, ptr %13) #8
  call void @llvm.lifetime.end.p0(i64 4, ptr %12) #8
  call void @llvm.lifetime.end.p0(i64 8, ptr %11) #8
  call void @llvm.lifetime.end.p0(i64 8, ptr %10) #8
  %54 = load i32, ptr %5, align 4
  ret i32 %54
}