; Function Attrs: nounwind uwtable
define hidden range(i32 0, 2) i32 @roseReportAdaptor(i64 noundef %0, i64 noundef %1, i32 noundef %2, ptr noundef %3) local_unnamed_addr #0 {
  %5 = getelementptr inbounds nuw i8, ptr %3, i64 248
  %6 = load ptr, ptr %5, align 8
  %7 = load i8, ptr %6, align 8
  %.not = icmp eq i8 %7, 0
  br i1 %.not, label %10, label %8

8:                                                ; preds = %4
  %9 = tail call i64 @roseRunProgram_l(ptr noundef nonnull %6, ptr noundef nonnull %3, i32 noundef %2, i64 noundef %0, i64 noundef %1, i8 noundef zeroext 8) #6
  br label %12

10:                                               ; preds = %4
  %11 = tail call i64 @roseRunProgram(ptr noundef nonnull %6, ptr noundef nonnull %3, i32 noundef %2, i64 noundef %0, i64 noundef %1, i8 noundef zeroext 8) #6
  br label %12

12:                                               ; preds = %10, %8
  %.0 = phi i64 [ %9, %8 ], [ %11, %10 ]
  %13 = icmp eq i64 %.0, 0
  br i1 %13, label %19, label %14

14:                                               ; preds = %12
  %15 = getelementptr inbounds nuw i8, ptr %3, i64 328
  %16 = load i8, ptr %15, align 8
  %17 = and i8 %16, 11
  %.not17 = icmp eq i8 %17, 0
  %18 = zext i1 %.not17 to i32
  br label %19

19:                                               ; preds = %12, %14
  %.016 = phi i32 [ %18, %14 ], [ 0, %12 ]
  ret i32 %.016
}